target datalayout = "e-m:e-p270:32:32-p271:32:32-p272:64:64-i64:64-i128:128-f80:128-n8:16:32:64-S128"
target triple = "x86_64-pc-linux-gnu"

%struct._lv_draw_sw_mask_common_dsc_t = type { ptr, i32 }
%struct._lv_draw_sw_mask_line_param_t = type { %struct._lv_draw_sw_mask_common_dsc_t, %struct.anon.0, %struct.lv_point_t, i32, i32, i32, i32, i8 }
%struct.anon.0 = type { %struct.lv_point_t, %struct.lv_point_t, i8 }
%struct.lv_point_t = type { i32, i32 }
%struct._lv_draw_sw_mask_angle_param_t = type { %struct._lv_draw_sw_mask_common_dsc_t, %struct.anon.1, %struct._lv_draw_sw_mask_line_param_t, %struct._lv_draw_sw_mask_line_param_t, i16 }
%struct.anon.1 = type { %struct.lv_point_t, i32, i32 }

; Function Attrs: nounwind uwtable
define void @lv_draw_sw_mask_line_angle_init(ptr noundef %0, i32 noundef %1, i32 noundef %2, i16 noundef signext %3, i32 noundef %4) #0 {
  %6 = alloca ptr, align 8
  %7 = alloca i32, align 4
  %8 = alloca i32, align 4
  %9 = alloca i16, align 2
  %10 = alloca i32, align 4
  %11 = alloca i32, align 4
  %12 = alloca i32, align 4
  store ptr %0, ptr %6, align 8, !tbaa !3
  store i32 %1, ptr %7, align 4, !tbaa !7
  store i32 %2, ptr %8, align 4, !tbaa !7
  store i16 %3, ptr %9, align 2, !tbaa !42
  store i32 %4, ptr %10, align 4, !tbaa !7
  %13 = load i16, ptr %9, align 2, !tbaa !42
  %14 = sext i16 %13 to i32
  %15 = icmp sgt i32 %14, 180
  br i1 %15, label %16, label %21

16:                                               ; preds = %5
  %17 = load i16, ptr %9, align 2, !tbaa !42
  %18 = sext i16 %17 to i32
  %19 = sub nsw i32 %18, 180
  %20 = trunc i32 %19 to i16
  store i16 %20, ptr %9, align 2, !tbaa !42
  br label %21

21:                                               ; preds = %16, %5
  call void @llvm.lifetime.start.p0(i64 4, ptr %11) #4
  call void @llvm.lifetime.start.p0(i64 4, ptr %12) #4
  %22 = load i16, ptr %9, align 2, !tbaa !42
  %23 = sext i16 %22 to i32
  %24 = add nsw i32 %23, 90
  %25 = trunc i32 %24 to i16
  %26 = call i32 @lv_trigo_sin(i16 noundef signext %25)
  %27 = ashr i32 %26, 5
  %28 = load i32, ptr %7, align 4, !tbaa !7
  %29 = add nsw i32 %27, %28
  store i32 %29, ptr %11, align 4, !tbaa !7
  %30 = load i16, ptr %9, align 2, !tbaa !42
  %31 = call i32 @lv_trigo_sin(i16 noundef signext %30)
  %32 = ashr i32 %31, 5
  %33 = load i32, ptr %8, align 4, !tbaa !7
  %34 = add nsw i32 %32, %33
  store i32 %34, ptr %12, align 4, !tbaa !7
  %35 = load ptr, ptr %6, align 8, !tbaa !3
  %36 = load i32, ptr %7, align 4, !tbaa !7
  %37 = load i32, ptr %8, align 4, !tbaa !7
  %38 = load i32, ptr %11, align 4, !tbaa !7
  %39 = load i32, ptr %12, align 4, !tbaa !7
  %40 = load i32, ptr %10, align 4, !tbaa !7
  call void @lv_draw_sw_mask_line_points_init(ptr noundef %35, i32 noundef %36, i32 noundef %37, i32 noundef %38, i32 noundef %39, i32 noundef %40)
  call void @llvm.lifetime.end.p0(i64 4, ptr %12) #4
  call void @llvm.lifetime.end.p0(i64 4, ptr %11) #4
  ret void
}

; Function Attrs: nounwind uwtable
define void @lv_draw_sw_mask_angle_init(ptr noundef %0, i32 noundef %1, i32 noundef %2, i32 noundef %3, i32 noundef %4) #0 {
  %6 = alloca ptr, align 8
  %7 = alloca i32, align 4
  %8 = alloca i32, align 4
  %9 = alloca i32, align 4
  %10 = alloca i32, align 4
  %11 = alloca i32, align 4
  %12 = alloca i32, align 4
  store ptr %0, ptr %6, align 8, !tbaa !3
  store i32 %1, ptr %7, align 4, !tbaa !7
  store i32 %2, ptr %8, align 4, !tbaa !7
  store i32 %3, ptr %9, align 4, !tbaa !7
  store i32 %4, ptr %10, align 4, !tbaa !7
  call void @llvm.lifetime.start.p0(i64 4, ptr %11) #4
  call void @llvm.lifetime.start.p0(i64 4, ptr %12) #4
  %13 = load i32, ptr %9, align 4, !tbaa !7
  %14 = icmp slt i32 %13, 0
  br i1 %14, label %15, label %16

15:                                               ; preds = %5
  store i32 0, ptr %9, align 4, !tbaa !7
  br label %21

16:                                               ; preds = %5
  %17 = load i32, ptr %9, align 4, !tbaa !7
  %18 = icmp sgt i32 %17, 359
  br i1 %18, label %19, label %20

19:                                               ; preds = %16
  store i32 359, ptr %9, align 4, !tbaa !7
  br label %20

20:                                               ; preds = %19, %16
  br label %21

21:                                               ; preds = %20, %15
  %22 = load i32, ptr %10, align 4, !tbaa !7
  %23 = icmp slt i32 %22, 0
  br i1 %23, label %24, label %25

24:                                               ; preds = %21
  store i32 0, ptr %10, align 4, !tbaa !7
  br label %30

25:                                               ; preds = %21
  %26 = load i32, ptr %10, align 4, !tbaa !7
  %27 = icmp sgt i32 %26, 359
  br i1 %27, label %28, label %29

28:                                               ; preds = %25
  store i32 359, ptr %10, align 4, !tbaa !7
  br label %29

29:                                               ; preds = %28, %25
  br label %30

30:                                               ; preds = %29, %24
  %31 = load i32, ptr %10, align 4, !tbaa !7
  %32 = load i32, ptr %9, align 4, !tbaa !7
  %33 = icmp slt i32 %31, %32
  br i1 %33, label %34, label %42

34:                                               ; preds = %30
  %35 = load i32, ptr %9, align 4, !tbaa !7
  %36 = sub nsw i32 360, %35
  %37 = load i32, ptr %10, align 4, !tbaa !7
  %38 = add nsw i32 %36, %37
  %39 = trunc i32 %38 to i16
  %40 = load ptr, ptr %6, align 8, !tbaa !3
  %41 = getelementptr inbounds nuw %struct._lv_draw_sw_mask_angle_param_t, ptr %40, i32 0, i32 4
  store i16 %39, ptr %41, align 8, !tbaa !44
  br label %61

42:                                               ; preds = %30
  %43 = load i32, ptr %10, align 4, !tbaa !7
  %44 = load i32, ptr %9, align 4, !tbaa !7
  %45 = sub nsw i32 %43, %44
  %46 = icmp sgt i32 %45, 0
  br i1 %46, label %47, label %51

47:                                               ; preds = %42
  %48 = load i32, ptr %10, align 4, !tbaa !7
  %49 = load i32, ptr %9, align 4, !tbaa !7
  %50 = sub nsw i32 %48, %49
  br label %56

51:                                               ; preds = %42
  %52 = load i32, ptr %10, align 4, !tbaa !7
  %53 = load i32, ptr %9, align 4, !tbaa !7
  %54 = sub nsw i32 %52, %53
  %55 = sub nsw i32 0, %54
  br label %56

56:                                               ; preds = %51, %47
  %57 = phi i32 [ %50, %47 ], [ %55, %51 ]
  %58 = trunc i32 %57 to i16
  %59 = load ptr, ptr %6, align 8, !tbaa !3
  %60 = getelementptr inbounds nuw %struct._lv_draw_sw_mask_angle_param_t, ptr %59, i32 0, i32 4
  store i16 %58, ptr %60, align 8, !tbaa !44
  br label %61

61:                                               ; preds = %56, %34
  %62 = load i32, ptr %9, align 4, !tbaa !7
  %63 = load ptr, ptr %6, align 8, !tbaa !3
  %64 = getelementptr inbounds nuw %struct._lv_draw_sw_mask_angle_param_t, ptr %63, i32 0, i32 1
  %65 = getelementptr inbounds nuw %struct.anon.1, ptr %64, i32 0, i32 1
  store i32 %62, ptr %65, align 8, !tbaa !47
  %66 = load i32, ptr %10, align 4, !tbaa !7
  %67 = load ptr, ptr %6, align 8, !tbaa !3
  %68 = getelementptr inbounds nuw %struct._lv_draw_sw_mask_angle_param_t, ptr %67, i32 0, i32 1
  %69 = getelementptr inbounds nuw %struct.anon.1, ptr %68, i32 0, i32 2
  store i32 %66, ptr %69, align 4, !tbaa !48
  %70 = load ptr, ptr %6, align 8, !tbaa !3
  %71 = getelementptr inbounds nuw %struct._lv_draw_sw_mask_angle_param_t, ptr %70, i32 0, i32 1
  %72 = getelementptr inbounds nuw %struct.anon.1, ptr %71, i32 0, i32 0
  %73 = load i32, ptr %7, align 4, !tbaa !7
  %74 = load i32, ptr %8, align 4, !tbaa !7
  call void @lv_point_set(ptr noundef %72, i32 noundef %73, i32 noundef %74)
  %75 = load ptr, ptr %6, align 8, !tbaa !3
  %76 = getelementptr inbounds nuw %struct._lv_draw_sw_mask_angle_param_t, ptr %75, i32 0, i32 0
  %77 = getelementptr inbounds nuw %struct._lv_draw_sw_mask_common_dsc_t, ptr %76, i32 0, i32 0
  store ptr @lv_draw_mask_angle, ptr %77, align 8, !tbaa !49
  %78 = load ptr, ptr %6, align 8, !tbaa !3
  %79 = getelementptr inbounds nuw %struct._lv_draw_sw_mask_angle_param_t, ptr %78, i32 0, i32 0
  %80 = getelementptr inbounds nuw %struct._lv_draw_sw_mask_common_dsc_t, ptr %79, i32 0, i32 1
  store i32 1, ptr %80, align 8, !tbaa !50
  br label %81

81:                                               ; preds = %61
  %82 = load i32, ptr %9, align 4, !tbaa !7
  %83 = icmp sge i32 %82, 0
  br i1 %83, label %84, label %87

84:                                               ; preds = %81
  %85 = load i32, ptr %9, align 4, !tbaa !7
  %86 = icmp sle i32 %85, 360
  br i1 %86, label %93, label %87

87:                                               ; preds = %84, %81
  br label %88

88:                                               ; preds = %87
  br label %89

89:                                               ; preds = %88
  br label %90

90:                                               ; preds = %89
  br label %91

91:                                               ; preds = %92, %90
  br label %92

92:                                               ; preds = %91
  br label %91

93:                                               ; preds = %84
  br label %94

94:                                               ; preds = %93
  br label %95

95:                                               ; preds = %94
  %96 = load i32, ptr %9, align 4, !tbaa !7
  %97 = icmp sge i32 %96, 0
  br i1 %97, label %98, label %102

98:                                               ; preds = %95
  %99 = load i32, ptr %9, align 4, !tbaa !7
  %100 = icmp slt i32 %99, 180
  br i1 %100, label %101, label %102

101:                                              ; preds = %98
  store i32 0, ptr %11, align 4, !tbaa !7
  br label %103

102:                                              ; preds = %98, %95
  store i32 1, ptr %11, align 4, !tbaa !7
  br label %103

103:                                              ; preds = %102, %101
  br label %104

104:                                              ; preds = %103
  %105 = load i32, ptr %10, align 4, !tbaa !7
  %106 = icmp sge i32 %105, 0
  br i1 %106, label %107, label %110

107:                                              ; preds = %104
  %108 = load i32, ptr %9, align 4, !tbaa !7
  %109 = icmp sle i32 %108, 360
  br i1 %109, label %116, label %110

110:                                              ; preds = %107, %104
  br label %111

111:                                              ; preds = %110
  br label %112

112:                                              ; preds = %111
  br label %113

113:                                              ; preds = %112
  br label %114

114:                                              ; preds = %115, %113
  br label %115

115:                                              ; preds = %114
  br label %114

116:                                              ; preds = %107
  br label %117

117:                                              ; preds = %116
  br label %118

118:                                              ; preds = %117
  %119 = load i32, ptr %10, align 4, !tbaa !7
  %120 = icmp sge i32 %119, 0
  br i1 %120, label %121, label %125

121:                                              ; preds = %118
  %122 = load i32, ptr %10, align 4, !tbaa !7
  %123 = icmp slt i32 %122, 180
  br i1 %123, label %124, label %125

124:                                              ; preds = %121
  store i32 1, ptr %12, align 4, !tbaa !7
  br label %134

125:                                              ; preds = %121, %118
  %126 = load i32, ptr %10, align 4, !tbaa !7
  %127 = icmp sge i32 %126, 180
  br i1 %127, label %128, label %132

128:                                              ; preds = %125
  %129 = load i32, ptr %10, align 4, !tbaa !7
  %130 = icmp slt i32 %129, 360
  br i1 %130, label %131, label %132

131:                                              ; preds = %128
  store i32 0, ptr %12, align 4, !tbaa !7
  br label %133

132:                                              ; preds = %128, %125
  store i32 1, ptr %12, align 4, !tbaa !7
  br label %133

133:                                              ; preds = %132, %131
  br label %134

134:                                              ; preds = %133, %124
  %135 = load ptr, ptr %6, align 8, !tbaa !3
  %136 = getelementptr inbounds nuw %struct._lv_draw_sw_mask_angle_param_t, ptr %135, i32 0, i32 2
  %137 = load i32, ptr %7, align 4, !tbaa !7
  %138 = load i32, ptr %8, align 4, !tbaa !7
  %139 = load i32, ptr %9, align 4, !tbaa !7
  %140 = trunc i32 %139 to i16
  %141 = load i32, ptr %11, align 4, !tbaa !7
  call void @lv_draw_sw_mask_line_angle_init(ptr noundef %136, i32 noundef %137, i32 noundef %138, i16 noundef signext %140, i32 noundef %141)
  %142 = load ptr, ptr %6, align 8, !tbaa !3
  %143 = getelementptr inbounds nuw %struct._lv_draw_sw_mask_angle_param_t, ptr %142, i32 0, i32 3
  %144 = load i32, ptr %7, align 4, !tbaa !7
  %145 = load i32, ptr %8, align 4, !tbaa !7
  %146 = load i32, ptr %10, align 4, !tbaa !7
  %147 = trunc i32 %146 to i16
  %148 = load i32, ptr %12, align 4, !tbaa !7
  call void @lv_draw_sw_mask_line_angle_init(ptr noundef %143, i32 noundef %144, i32 noundef %145, i16 noundef signext %147, i32 noundef %148)
  call void @llvm.lifetime.end.p0(i64 4, ptr %12) #4
  call void @llvm.lifetime.end.p0(i64 4, ptr %11) #4
  ret void
}