; Function Attrs: nounwind uwtable
define void @lv_draw_sw_mask_angle_init(ptr noundef %0, i32 noundef %1, i32 noundef %2, i32 noundef %3, i32 noundef %4) local_unnamed_addr #0 {
  %6 = icmp slt i32 %3, 0
  %7 = tail call i32 @llvm.umin.i32(i32 %3, i32 359)
  %.056 = select i1 %6, i32 0, i32 %7
  %8 = icmp slt i32 %4, 0
  %9 = tail call i32 @llvm.umin.i32(i32 %4, i32 359)
  %.055 = select i1 %8, i32 0, i32 %9
  %10 = icmp samesign ult i32 %.055, %.056
  %reass.sub = sub nsw i32 %.055, %.056
  %11 = trunc nsw i32 %reass.sub to i16
  %12 = add nsw i16 %11, 360
  %.sink = select i1 %10, i16 %12, i16 %11
  %13 = getelementptr inbounds nuw i8, ptr %0, i64 160
  store i16 %.sink, ptr %13, align 8
  %14 = getelementptr inbounds nuw i8, ptr %0, i64 16
  %15 = getelementptr inbounds nuw i8, ptr %0, i64 24
  store i32 %.056, ptr %15, align 8, !tbaa !36
  %16 = getelementptr inbounds nuw i8, ptr %0, i64 28
  store i32 %.055, ptr %16, align 4, !tbaa !40
  tail call void @lv_point_set(ptr noundef nonnull %14, i32 noundef %1, i32 noundef %2) #7
  store ptr @lv_draw_mask_angle, ptr %0, align 8, !tbaa !41
  %17 = getelementptr inbounds nuw i8, ptr %0, i64 8
  store i32 1, ptr %17, align 8, !tbaa !42
  %18 = icmp samesign ugt i32 %.056, 179
  %.054 = zext i1 %18 to i32
  %19 = icmp samesign ult i32 %.055, 180
  %.0 = zext i1 %19 to i32
  %20 = getelementptr inbounds nuw i8, ptr %0, i64 32
  %21 = trunc nuw nsw i32 %.056 to i16
  %22 = icmp samesign ugt i32 %.056, 180
  %23 = add nsw i16 %21, -180
  %spec.select.i = select i1 %22, i16 %23, i16 %21
  %24 = add nuw nsw i16 %spec.select.i, 90
  %25 = tail call i32 @lv_trigo_sin(i16 noundef signext %24) #7
  %26 = ashr i32 %25, 5
  %27 = add nsw i32 %26, %1
  %28 = tail call i32 @lv_trigo_sin(i16 noundef signext %spec.select.i) #7
  %29 = ashr i32 %28, 5
  %30 = add nsw i32 %29, %2
  tail call void @lv_draw_sw_mask_line_points_init(ptr noundef nonnull %20, i32 noundef %1, i32 noundef %2, i32 noundef %27, i32 noundef %30, i32 noundef %.054)
  %31 = getelementptr inbounds nuw i8, ptr %0, i64 96
  %32 = trunc nuw nsw i32 %.055 to i16
  %33 = icmp samesign ugt i32 %.055, 180
  %34 = add nsw i16 %32, -180
  %spec.select.i60 = select i1 %33, i16 %34, i16 %32
  %35 = add nuw nsw i16 %spec.select.i60, 90
  %36 = tail call i32 @lv_trigo_sin(i16 noundef signext %35) #7
  %37 = ashr i32 %36, 5
  %38 = add nsw i32 %37, %1
  %39 = tail call i32 @lv_trigo_sin(i16 noundef signext %spec.select.i60) #7
  %40 = ashr i32 %39, 5
  %41 = add nsw i32 %40, %2
  tail call void @lv_draw_sw_mask_line_points_init(ptr noundef nonnull %31, i32 noundef %1, i32 noundef %2, i32 noundef %38, i32 noundef %41, i32 noundef %.0)
  ret void
}